target datalayout = "e-m:e-p270:32:32-p271:32:32-p272:64:64-i64:64-i128:128-f80:128-n8:16:32:64-S128"
target triple = "x86_64-unknown-linux-gnu"

; Function Attrs: mustprogress uwtable
define void @_ZNK6icu_7513MessageFormat11parseObjectERKNS_13UnicodeStringERNS_11FormattableERNS_13ParsePositionE(ptr noundef nonnull align 8 dereferenceable(816) %this, ptr noundef nonnull align 8 dereferenceable(64) %source, ptr noundef nonnull align 8 dereferenceable(112) %result, ptr noundef nonnull align 8 dereferenceable(16) %status) unnamed_addr #1 align 2 {
entry:
  %this.addr = alloca ptr, align 8
  %source.addr = alloca ptr, align 8
  %result.addr = alloca ptr, align 8
  %status.addr = alloca ptr, align 8
  %cnt = alloca i32, align 4
  %tmpResult = alloca ptr, align 8
  store ptr %this, ptr %this.addr, align 8
  store ptr %source, ptr %source.addr, align 8
  store ptr %result, ptr %result.addr, align 8
  store ptr %status, ptr %status.addr, align 8
  %this1 = load ptr, ptr %this.addr, align 8
  store i32 0, ptr %cnt, align 4
  %0 = load ptr, ptr %source.addr, align 8
  %1 = load ptr, ptr %status.addr, align 8
  %vtable = load ptr, ptr %this1, align 8
  %vfn = getelementptr inbounds ptr, ptr %vtable, i64 23
  %2 = load ptr, ptr %vfn, align 8
  %call = call noundef ptr %2(ptr noundef nonnull align 8 dereferenceable(816) %this1, ptr noundef nonnull align 8 dereferenceable(64) %0, ptr noundef nonnull align 8 dereferenceable(16) %1, ptr noundef nonnull align 4 dereferenceable(4) %cnt)
  store ptr %call, ptr %tmpResult, align 8
  %3 = load ptr, ptr %tmpResult, align 8
  %cmp = icmp ne ptr %3, null
  br i1 %cmp, label %if.then, label %if.end

if.then:                                          ; preds = %entry
  %4 = load ptr, ptr %result.addr, align 8
  %5 = load ptr, ptr %tmpResult, align 8
  %6 = load i32, ptr %cnt, align 4
  call void @_ZN6icu_7511Formattable10adoptArrayEPS0_i(ptr noundef nonnull align 8 dereferenceable(112) %4, ptr noundef %5, i32 noundef %6)
  br label %if.end

if.end:                                           ; preds = %if.then, %entry
  ret void
}