; Function Attrs: mustprogress uwtable
define void @_ZNK6icu_7513MessageFormat11parseObjectERKNS_13UnicodeStringERNS_11FormattableERNS_13ParsePositionE(ptr noundef nonnull align 8 dereferenceable(816) %this, ptr noundef nonnull align 8 dereferenceable(64) %source, ptr noundef nonnull align 8 dereferenceable(112) %result, ptr noundef nonnull align 8 dereferenceable(16) %status) unnamed_addr #1 align 2 {
entry:
  %cnt = alloca i32, align 4
  store i32 0, ptr %cnt, align 4
  %vtable = load ptr, ptr %this, align 8
  %vfn = getelementptr inbounds i8, ptr %vtable, i64 184
  %0 = load ptr, ptr %vfn, align 8
  %call = call noundef ptr %0(ptr noundef nonnull align 8 dereferenceable(816) %this, ptr noundef nonnull align 8 dereferenceable(64) %source, ptr noundef nonnull align 8 dereferenceable(16) %status, ptr noundef nonnull align 4 dereferenceable(4) %cnt)
  %cmp.not = icmp eq ptr %call, null
  br i1 %cmp.not, label %if.end, label %if.then

if.then:                                          ; preds = %entry
  %1 = load i32, ptr %cnt, align 4
  call void @_ZN6icu_7511Formattable10adoptArrayEPS0_i(ptr noundef nonnull align 8 dereferenceable(112) %result, ptr noundef nonnull %call, i32 noundef %1)
  br label %if.end

if.end:                                           ; preds = %if.then, %entry
  ret void
}